; Function Attrs: nofree norecurse nosync nounwind memory(argmem: readwrite) uwtable
define i32 @Abc_TtGetCM2Pat(ptr noundef readonly captures(none) %0, i32 noundef %1, ptr noundef %2) local_unnamed_addr #4 {
  %4 = alloca [16 x i32], align 16
  call void @llvm.lifetime.start.p0(i64 64, ptr nonnull %4) #24
  %5 = add nsw i32 %1, -2
  call void @llvm.memset.p0.i64(ptr noundef nonnull align 16 dereferenceable(64) %4, i8 -1, i64 64, i1 false)
  %.not21 = icmp eq i32 %5, 31
  br i1 %.not21, label %._crit_edge, label %.lr.ph

.lr.ph:                                           ; preds = %3
  %6 = shl nuw i32 1, %5
  %.not = icmp eq ptr %2, null
  %7 = tail call i32 @llvm.smax.i32(i32 %1, i32 8)
  %8 = add nsw i32 %7, -8
  %smax23 = tail call i32 @llvm.smax.i32(i32 %6, i32 1)
  br i1 %.not, label %.lr.ph.split.us, label %.lr.ph.split

.lr.ph.split.us:                                  ; preds = %.lr.ph, %23
  %.020.us = phi i32 [ %.1.us, %23 ], [ 0, %.lr.ph ]
  %.01719.us = phi i32 [ %24, %23 ], [ 0, %.lr.ph ]
  %9 = lshr i32 %.01719.us, 4
  %10 = zext nneg i32 %9 to i64
  %11 = getelementptr inbounds nuw i64, ptr %0, i64 %10
  %12 = load i64, ptr %11, align 8, !tbaa !3
  %13 = shl i32 %.01719.us, 2
  %14 = and i32 %13, 60
  %15 = zext nneg i32 %14 to i64
  %16 = lshr i64 %12, %15
  %17 = and i64 %16, 15
  %18 = getelementptr inbounds nuw [16 x i32], ptr %4, i64 0, i64 %17
  %19 = load i32, ptr %18, align 4, !tbaa !7
  %20 = icmp eq i32 %19, -1
  br i1 %20, label %21, label %23

21:                                               ; preds = %.lr.ph.split.us
  store i32 %.020.us, ptr %18, align 4, !tbaa !7
  %22 = add nsw i32 %.020.us, 1
  br label %23

23:                                               ; preds = %21, %.lr.ph.split.us
  %.1.us = phi i32 [ %22, %21 ], [ %.020.us, %.lr.ph.split.us ]
  %24 = add nuw nsw i32 %.01719.us, 1
  %exitcond24.not = icmp eq i32 %24, %smax23
  br i1 %exitcond24.not, label %._crit_edge, label %.lr.ph.split.us, !llvm.loop !41

.lr.ph.split:                                     ; preds = %.lr.ph, %39
  %.020 = phi i32 [ %.1, %39 ], [ 0, %.lr.ph ]
  %.01719 = phi i32 [ %52, %39 ], [ 0, %.lr.ph ]
  %25 = lshr i32 %.01719, 4
  %26 = zext nneg i32 %25 to i64
  %27 = getelementptr inbounds nuw i64, ptr %0, i64 %26
  %28 = load i64, ptr %27, align 8, !tbaa !3
  %29 = shl i32 %.01719, 2
  %30 = and i32 %29, 60
  %31 = zext nneg i32 %30 to i64
  %32 = lshr i64 %28, %31
  %33 = and i64 %32, 15
  %34 = getelementptr inbounds nuw [16 x i32], ptr %4, i64 0, i64 %33
  %35 = load i32, ptr %34, align 4, !tbaa !7
  %36 = icmp eq i32 %35, -1
  br i1 %36, label %37, label %39

37:                                               ; preds = %.lr.ph.split
  store i32 %.020, ptr %34, align 4, !tbaa !7
  %38 = add nsw i32 %.020, 1
  br label %39

39:                                               ; preds = %37, %.lr.ph.split
  %40 = phi i32 [ %.020, %37 ], [ %35, %.lr.ph.split ]
  %.1 = phi i32 [ %38, %37 ], [ %.020, %.lr.ph.split ]
  %41 = shl i32 %40, %8
  %42 = sext i32 %41 to i64
  %43 = getelementptr inbounds i64, ptr %2, i64 %42
  %44 = and i32 %.01719, 63
  %45 = zext nneg i32 %44 to i64
  %46 = shl nuw i64 1, %45
  %47 = lshr i32 %.01719, 6
  %48 = zext nneg i32 %47 to i64
  %49 = getelementptr inbounds nuw i64, ptr %43, i64 %48
  %50 = load i64, ptr %49, align 8, !tbaa !3
  %51 = or i64 %50, %46
  store i64 %51, ptr %49, align 8, !tbaa !3
  %52 = add nuw nsw i32 %.01719, 1
  %exitcond.not = icmp eq i32 %52, %smax23
  br i1 %exitcond.not, label %._crit_edge, label %.lr.ph.split, !llvm.loop !41

._crit_edge:                                      ; preds = %39, %23, %3
  %.0.lcssa = phi i32 [ 0, %3 ], [ %.1.us, %23 ], [ %.1, %39 ]
  call void @llvm.lifetime.end.p0(i64 64, ptr nonnull %4) #24
  ret i32 %.0.lcssa
}